target datalayout = "e-m:e-p270:32:32-p271:32:32-p272:64:64-i64:64-i128:128-f80:128-n8:16:32:64-S128"
target triple = "x86_64-pc-linux-gnu"

%struct.KangarooTwelve_Instance = type { %struct.KeccakWidth1600_12rounds_SpongeInstanceStruct, [4 x i8], %struct.KeccakWidth1600_12rounds_SpongeInstanceStruct, i64, i64, i32, i32 }
%struct.KeccakWidth1600_12rounds_SpongeInstanceStruct = type { [200 x i8], i32, i32, i32 }

; Function Attrs: nounwind uwtable
define dso_local i32 @KangarooTwelve_Update(ptr noundef %0, ptr noundef %1, i64 noundef %2) #0 {
  %4 = alloca i32, align 4
  %5 = alloca ptr, align 8
  %6 = alloca ptr, align 8
  %7 = alloca i64, align 8
  %8 = alloca i32, align 4
  %9 = alloca i32, align 4
  %10 = alloca i8, align 1
  %11 = alloca i32, align 4
  %12 = alloca [32 x i8], align 16
  %13 = alloca i32, align 4
  %14 = alloca [32 x i8], align 16
  store ptr %0, ptr %5, align 8
  store ptr %1, ptr %6, align 8
  store i64 %2, ptr %7, align 8
  %15 = load ptr, ptr %5, align 8
  %16 = getelementptr inbounds nuw %struct.KangarooTwelve_Instance, ptr %15, i32 0, i32 6
  %17 = load i32, ptr %16, align 4
  %18 = icmp ne i32 %17, 1
  br i1 %18, label %19, label %20

19:                                               ; preds = %3
  store i32 1, ptr %4, align 4
  br label %258

20:                                               ; preds = %3
  %21 = load ptr, ptr %5, align 8
  %22 = getelementptr inbounds nuw %struct.KangarooTwelve_Instance, ptr %21, i32 0, i32 4
  %23 = load i64, ptr %22, align 8
  %24 = icmp eq i64 %23, 0
  br i1 %24, label %25, label %99

25:                                               ; preds = %20
  call void @llvm.lifetime.start.p0(i64 4, ptr %8) #3
  %26 = load i64, ptr %7, align 8
  %27 = load ptr, ptr %5, align 8
  %28 = getelementptr inbounds nuw %struct.KangarooTwelve_Instance, ptr %27, i32 0, i32 5
  %29 = load i32, ptr %28, align 8
  %30 = sub i32 8192, %29
  %31 = zext i32 %30 to i64
  %32 = icmp ult i64 %26, %31
  br i1 %32, label %33, label %36

33:                                               ; preds = %25
  %34 = load i64, ptr %7, align 8
  %35 = trunc i64 %34 to i32
  br label %41

36:                                               ; preds = %25
  %37 = load ptr, ptr %5, align 8
  %38 = getelementptr inbounds nuw %struct.KangarooTwelve_Instance, ptr %37, i32 0, i32 5
  %39 = load i32, ptr %38, align 8
  %40 = sub i32 8192, %39
  br label %41

41:                                               ; preds = %36, %33
  %42 = phi i32 [ %35, %33 ], [ %40, %36 ]
  store i32 %42, ptr %8, align 4
  %43 = load ptr, ptr %5, align 8
  %44 = getelementptr inbounds nuw %struct.KangarooTwelve_Instance, ptr %43, i32 0, i32 2
  %45 = load ptr, ptr %6, align 8
  %46 = load i32, ptr %8, align 4
  %47 = zext i32 %46 to i64
  %48 = call i32 @KeccakWidth1600_12rounds_SpongeAbsorb(ptr noundef %44, ptr noundef %45, i64 noundef %47)
  %49 = icmp ne i32 %48, 0
  br i1 %49, label %50, label %51

50:                                               ; preds = %41
  store i32 1, ptr %4, align 4
  store i32 1, ptr %9, align 4
  br label %96

51:                                               ; preds = %41
  %52 = load i32, ptr %8, align 4
  %53 = load ptr, ptr %6, align 8
  %54 = zext i32 %52 to i64
  %55 = getelementptr inbounds nuw i8, ptr %53, i64 %54
  store ptr %55, ptr %6, align 8
  %56 = load i32, ptr %8, align 4
  %57 = zext i32 %56 to i64
  %58 = load i64, ptr %7, align 8
  %59 = sub i64 %58, %57
  store i64 %59, ptr %7, align 8
  %60 = load i32, ptr %8, align 4
  %61 = load ptr, ptr %5, align 8
  %62 = getelementptr inbounds nuw %struct.KangarooTwelve_Instance, ptr %61, i32 0, i32 5
  %63 = load i32, ptr %62, align 8
  %64 = add i32 %63, %60
  store i32 %64, ptr %62, align 8
  %65 = load ptr, ptr %5, align 8
  %66 = getelementptr inbounds nuw %struct.KangarooTwelve_Instance, ptr %65, i32 0, i32 5
  %67 = load i32, ptr %66, align 8
  %68 = icmp eq i32 %67, 8192
  br i1 %68, label %69, label %95

69:                                               ; preds = %51
  %70 = load i64, ptr %7, align 8
  %71 = icmp ne i64 %70, 0
  br i1 %71, label %72, label %95

72:                                               ; preds = %69
  call void @llvm.lifetime.start.p0(i64 1, ptr %10) #3
  store i8 3, ptr %10, align 1
  %73 = load ptr, ptr %5, align 8
  %74 = getelementptr inbounds nuw %struct.KangarooTwelve_Instance, ptr %73, i32 0, i32 5
  store i32 0, ptr %74, align 8
  %75 = load ptr, ptr %5, align 8
  %76 = getelementptr inbounds nuw %struct.KangarooTwelve_Instance, ptr %75, i32 0, i32 4
  store i64 1, ptr %76, align 8
  %77 = load ptr, ptr %5, align 8
  %78 = getelementptr inbounds nuw %struct.KangarooTwelve_Instance, ptr %77, i32 0, i32 2
  %79 = call i32 @KeccakWidth1600_12rounds_SpongeAbsorb(ptr noundef %78, ptr noundef %10, i64 noundef 1)
  %80 = icmp ne i32 %79, 0
  br i1 %80, label %81, label %82

81:                                               ; preds = %72
  store i32 1, ptr %4, align 4
  store i32 1, ptr %9, align 4
  br label %92

82:                                               ; preds = %72
  %83 = load ptr, ptr %5, align 8
  %84 = getelementptr inbounds nuw %struct.KangarooTwelve_Instance, ptr %83, i32 0, i32 2
  %85 = getelementptr inbounds nuw %struct.KeccakWidth1600_12rounds_SpongeInstanceStruct, ptr %84, i32 0, i32 2
  %86 = load i32, ptr %85, align 4
  %87 = add i32 %86, 7
  %88 = and i32 %87, -8
  %89 = load ptr, ptr %5, align 8
  %90 = getelementptr inbounds nuw %struct.KangarooTwelve_Instance, ptr %89, i32 0, i32 2
  %91 = getelementptr inbounds nuw %struct.KeccakWidth1600_12rounds_SpongeInstanceStruct, ptr %90, i32 0, i32 2
  store i32 %88, ptr %91, align 4
  store i32 0, ptr %9, align 4
  br label %92

92:                                               ; preds = %82, %81
  call void @llvm.lifetime.end.p0(i64 1, ptr %10) #3
  %93 = load i32, ptr %9, align 4
  switch i32 %93, label %96 [
    i32 0, label %94
  ]

94:                                               ; preds = %92
  br label %95

95:                                               ; preds = %94, %69, %51
  store i32 0, ptr %9, align 4
  br label %96

96:                                               ; preds = %95, %92, %50
  call void @llvm.lifetime.end.p0(i64 4, ptr %8) #3
  %97 = load i32, ptr %9, align 4
  switch i32 %97, label %260 [
    i32 0, label %98
    i32 1, label %258
  ]

98:                                               ; preds = %96
  br label %183

99:                                               ; preds = %20
  %100 = load ptr, ptr %5, align 8
  %101 = getelementptr inbounds nuw %struct.KangarooTwelve_Instance, ptr %100, i32 0, i32 5
  %102 = load i32, ptr %101, align 8
  %103 = icmp ne i32 %102, 0
  br i1 %103, label %104, label %182

104:                                              ; preds = %99
  call void @llvm.lifetime.start.p0(i64 4, ptr %11) #3
  %105 = load i64, ptr %7, align 8
  %106 = load ptr, ptr %5, align 8
  %107 = getelementptr inbounds nuw %struct.KangarooTwelve_Instance, ptr %106, i32 0, i32 5
  %108 = load i32, ptr %107, align 8
  %109 = sub i32 8192, %108
  %110 = zext i32 %109 to i64
  %111 = icmp ult i64 %105, %110
  br i1 %111, label %112, label %115

112:                                              ; preds = %104
  %113 = load i64, ptr %7, align 8
  %114 = trunc i64 %113 to i32
  br label %120

115:                                              ; preds = %104
  %116 = load ptr, ptr %5, align 8
  %117 = getelementptr inbounds nuw %struct.KangarooTwelve_Instance, ptr %116, i32 0, i32 5
  %118 = load i32, ptr %117, align 8
  %119 = sub i32 8192, %118
  br label %120

120:                                              ; preds = %115, %112
  %121 = phi i32 [ %114, %112 ], [ %119, %115 ]
  store i32 %121, ptr %11, align 4
  %122 = load ptr, ptr %5, align 8
  %123 = getelementptr inbounds nuw %struct.KangarooTwelve_Instance, ptr %122, i32 0, i32 0
  %124 = load ptr, ptr %6, align 8
  %125 = load i32, ptr %11, align 4
  %126 = zext i32 %125 to i64
  %127 = call i32 @KeccakWidth1600_12rounds_SpongeAbsorb(ptr noundef %123, ptr noundef %124, i64 noundef %126)
  %128 = icmp ne i32 %127, 0
  br i1 %128, label %129, label %130

129:                                              ; preds = %120
  store i32 1, ptr %4, align 4
  store i32 1, ptr %9, align 4
  br label %179

130:                                              ; preds = %120
  %131 = load i32, ptr %11, align 4
  %132 = load ptr, ptr %6, align 8
  %133 = zext i32 %131 to i64
  %134 = getelementptr inbounds nuw i8, ptr %132, i64 %133
  store ptr %134, ptr %6, align 8
  %135 = load i32, ptr %11, align 4
  %136 = zext i32 %135 to i64
  %137 = load i64, ptr %7, align 8
  %138 = sub i64 %137, %136
  store i64 %138, ptr %7, align 8
  %139 = load i32, ptr %11, align 4
  %140 = load ptr, ptr %5, align 8
  %141 = getelementptr inbounds nuw %struct.KangarooTwelve_Instance, ptr %140, i32 0, i32 5
  %142 = load i32, ptr %141, align 8
  %143 = add i32 %142, %139
  store i32 %143, ptr %141, align 8
  %144 = load ptr, ptr %5, align 8
  %145 = getelementptr inbounds nuw %struct.KangarooTwelve_Instance, ptr %144, i32 0, i32 5
  %146 = load i32, ptr %145, align 8
  %147 = icmp eq i32 %146, 8192
  br i1 %147, label %148, label %178

148:                                              ; preds = %130
  call void @llvm.lifetime.start.p0(i64 32, ptr %12) #3
  %149 = load ptr, ptr %5, align 8
  %150 = getelementptr inbounds nuw %struct.KangarooTwelve_Instance, ptr %149, i32 0, i32 5
  store i32 0, ptr %150, align 8
  %151 = load ptr, ptr %5, align 8
  %152 = getelementptr inbounds nuw %struct.KangarooTwelve_Instance, ptr %151, i32 0, i32 4
  %153 = load i64, ptr %152, align 8
  %154 = add i64 %153, 1
  store i64 %154, ptr %152, align 8
  %155 = load ptr, ptr %5, align 8
  %156 = getelementptr inbounds nuw %struct.KangarooTwelve_Instance, ptr %155, i32 0, i32 0
  %157 = call i32 @KeccakWidth1600_12rounds_SpongeAbsorbLastFewBits(ptr noundef %156, i8 noundef zeroext 11)
  %158 = icmp ne i32 %157, 0
  br i1 %158, label %159, label %160

159:                                              ; preds = %148
  store i32 1, ptr %4, align 4
  store i32 1, ptr %9, align 4
  br label %175

160:                                              ; preds = %148
  %161 = load ptr, ptr %5, align 8
  %162 = getelementptr inbounds nuw %struct.KangarooTwelve_Instance, ptr %161, i32 0, i32 0
  %163 = getelementptr inbounds [32 x i8], ptr %12, i64 0, i64 0
  %164 = call i32 @KeccakWidth1600_12rounds_SpongeSqueeze(ptr noundef %162, ptr noundef %163, i64 noundef 32)
  %165 = icmp ne i32 %164, 0
  br i1 %165, label %166, label %167

166:                                              ; preds = %160
  store i32 1, ptr %4, align 4
  store i32 1, ptr %9, align 4
  br label %175

167:                                              ; preds = %160
  %168 = load ptr, ptr %5, align 8
  %169 = getelementptr inbounds nuw %struct.KangarooTwelve_Instance, ptr %168, i32 0, i32 2
  %170 = getelementptr inbounds [32 x i8], ptr %12, i64 0, i64 0
  %171 = call i32 @KeccakWidth1600_12rounds_SpongeAbsorb(ptr noundef %169, ptr noundef %170, i64 noundef 32)
  %172 = icmp ne i32 %171, 0
  br i1 %172, label %173, label %174

173:                                              ; preds = %167
  store i32 1, ptr %4, align 4
  store i32 1, ptr %9, align 4
  br label %175

174:                                              ; preds = %167
  store i32 0, ptr %9, align 4
  br label %175

175:                                              ; preds = %174, %173, %166, %159
  call void @llvm.lifetime.end.p0(i64 32, ptr %12) #3
  %176 = load i32, ptr %9, align 4
  switch i32 %176, label %179 [
    i32 0, label %177
  ]

177:                                              ; preds = %175
  br label %178

178:                                              ; preds = %177, %130
  store i32 0, ptr %9, align 4
  br label %179

179:                                              ; preds = %178, %175, %129
  call void @llvm.lifetime.end.p0(i64 4, ptr %11) #3
  %180 = load i32, ptr %9, align 4
  switch i32 %180, label %260 [
    i32 0, label %181
    i32 1, label %258
  ]

181:                                              ; preds = %179
  br label %182

182:                                              ; preds = %181, %99
  br label %183

183:                                              ; preds = %182, %98
  br label %184

184:                                              ; preds = %256, %183
  %185 = load i64, ptr %7, align 8
  %186 = icmp ugt i64 %185, 0
  br i1 %186, label %187, label %257

187:                                              ; preds = %184
  call void @llvm.lifetime.start.p0(i64 4, ptr %13) #3
  %188 = load i64, ptr %7, align 8
  %189 = icmp ult i64 %188, 8192
  br i1 %189, label %190, label %193

190:                                              ; preds = %187
  %191 = load i64, ptr %7, align 8
  %192 = trunc i64 %191 to i32
  br label %194

193:                                              ; preds = %187
  br label %194

194:                                              ; preds = %193, %190
  %195 = phi i32 [ %192, %190 ], [ 8192, %193 ]
  store i32 %195, ptr %13, align 4
  %196 = load ptr, ptr %5, align 8
  %197 = getelementptr inbounds nuw %struct.KangarooTwelve_Instance, ptr %196, i32 0, i32 0
  %198 = call i32 @KeccakWidth1600_12rounds_SpongeInitialize(ptr noundef %197, i32 noundef 1344, i32 noundef 256)
  %199 = icmp ne i32 %198, 0
  br i1 %199, label %200, label %201

200:                                              ; preds = %194
  store i32 1, ptr %4, align 4
  store i32 1, ptr %9, align 4
  br label %254

201:                                              ; preds = %194
  %202 = load ptr, ptr %5, align 8
  %203 = getelementptr inbounds nuw %struct.KangarooTwelve_Instance, ptr %202, i32 0, i32 0
  %204 = load ptr, ptr %6, align 8
  %205 = load i32, ptr %13, align 4
  %206 = zext i32 %205 to i64
  %207 = call i32 @KeccakWidth1600_12rounds_SpongeAbsorb(ptr noundef %203, ptr noundef %204, i64 noundef %206)
  %208 = icmp ne i32 %207, 0
  br i1 %208, label %209, label %210

209:                                              ; preds = %201
  store i32 1, ptr %4, align 4
  store i32 1, ptr %9, align 4
  br label %254

210:                                              ; preds = %201
  %211 = load i32, ptr %13, align 4
  %212 = load ptr, ptr %6, align 8
  %213 = zext i32 %211 to i64
  %214 = getelementptr inbounds nuw i8, ptr %212, i64 %213
  store ptr %214, ptr %6, align 8
  %215 = load i32, ptr %13, align 4
  %216 = zext i32 %215 to i64
  %217 = load i64, ptr %7, align 8
  %218 = sub i64 %217, %216
  store i64 %218, ptr %7, align 8
  %219 = load i32, ptr %13, align 4
  %220 = icmp eq i32 %219, 8192
  br i1 %220, label %221, label %249

221:                                              ; preds = %210
  call void @llvm.lifetime.start.p0(i64 32, ptr %14) #3
  %222 = load ptr, ptr %5, align 8
  %223 = getelementptr inbounds nuw %struct.KangarooTwelve_Instance, ptr %222, i32 0, i32 4
  %224 = load i64, ptr %223, align 8
  %225 = add i64 %224, 1
  store i64 %225, ptr %223, align 8
  %226 = load ptr, ptr %5, align 8
  %227 = getelementptr inbounds nuw %struct.KangarooTwelve_Instance, ptr %226, i32 0, i32 0
  %228 = call i32 @KeccakWidth1600_12rounds_SpongeAbsorbLastFewBits(ptr noundef %227, i8 noundef zeroext 11)
  %229 = icmp ne i32 %228, 0
  br i1 %229, label %230, label %231

230:                                              ; preds = %221
  store i32 1, ptr %4, align 4
  store i32 1, ptr %9, align 4
  br label %246

231:                                              ; preds = %221
  %232 = load ptr, ptr %5, align 8
  %233 = getelementptr inbounds nuw %struct.KangarooTwelve_Instance, ptr %232, i32 0, i32 0
  %234 = getelementptr inbounds [32 x i8], ptr %14, i64 0, i64 0
  %235 = call i32 @KeccakWidth1600_12rounds_SpongeSqueeze(ptr noundef %233, ptr noundef %234, i64 noundef 32)
  %236 = icmp ne i32 %235, 0
  br i1 %236, label %237, label %238

237:                                              ; preds = %231
  store i32 1, ptr %4, align 4
  store i32 1, ptr %9, align 4
  br label %246

238:                                              ; preds = %231
  %239 = load ptr, ptr %5, align 8
  %240 = getelementptr inbounds nuw %struct.KangarooTwelve_Instance, ptr %239, i32 0, i32 2
  %241 = getelementptr inbounds [32 x i8], ptr %14, i64 0, i64 0
  %242 = call i32 @KeccakWidth1600_12rounds_SpongeAbsorb(ptr noundef %240, ptr noundef %241, i64 noundef 32)
  %243 = icmp ne i32 %242, 0
  br i1 %243, label %244, label %245

244:                                              ; preds = %238
  store i32 1, ptr %4, align 4
  store i32 1, ptr %9, align 4
  br label %246

245:                                              ; preds = %238
  store i32 0, ptr %9, align 4
  br label %246

246:                                              ; preds = %245, %244, %237, %230
  call void @llvm.lifetime.end.p0(i64 32, ptr %14) #3
  %247 = load i32, ptr %9, align 4
  switch i32 %247, label %254 [
    i32 0, label %248
  ]

248:                                              ; preds = %246
  br label %253

249:                                              ; preds = %210
  %250 = load i32, ptr %13, align 4
  %251 = load ptr, ptr %5, align 8
  %252 = getelementptr inbounds nuw %struct.KangarooTwelve_Instance, ptr %251, i32 0, i32 5
  store i32 %250, ptr %252, align 8
  br label %253

253:                                              ; preds = %249, %248
  store i32 0, ptr %9, align 4
  br label %254

254:                                              ; preds = %253, %246, %209, %200
  call void @llvm.lifetime.end.p0(i64 4, ptr %13) #3
  %255 = load i32, ptr %9, align 4
  switch i32 %255, label %260 [
    i32 0, label %256
    i32 1, label %258
  ]

256:                                              ; preds = %254
  br label %184, !llvm.loop !8

257:                                              ; preds = %184
  store i32 0, ptr %4, align 4
  br label %258

258:                                              ; preds = %257, %254, %179, %96, %19
  %259 = load i32, ptr %4, align 4
  ret i32 %259

260:                                              ; preds = %254, %179, %96
  unreachable
}