; Function Attrs: nounwind uwtable
define dso_local range(i32 0, 2) i32 @KangarooTwelve_Update(ptr noundef %0, ptr noundef %1, i64 noundef %2) local_unnamed_addr #0 {
  %4 = alloca i8, align 1
  %5 = alloca [32 x i8], align 16
  %6 = alloca [32 x i8], align 16
  %7 = getelementptr inbounds nuw i8, ptr %0, i64 452
  %8 = load i32, ptr %7, align 4
  %.not = icmp eq i32 %8, 1
  br i1 %.not, label %9, label %.thread116

9:                                                ; preds = %3
  %10 = getelementptr inbounds nuw i8, ptr %0, i64 440
  %11 = load i64, ptr %10, align 8
  %12 = icmp eq i64 %11, 0
  %13 = getelementptr inbounds nuw i8, ptr %0, i64 448
  %14 = load i32, ptr %13, align 8
  br i1 %12, label %15, label %35

15:                                               ; preds = %9
  %16 = sub i32 8192, %14
  %17 = zext i32 %16 to i64
  %18 = tail call i64 @llvm.umin.i64(i64 %2, i64 %17)
  %19 = getelementptr inbounds nuw i8, ptr %0, i64 216
  %20 = tail call i32 @KeccakWidth1600_12rounds_SpongeAbsorb(ptr noundef nonnull %19, ptr noundef %1, i64 noundef %18) #4
  %.not94 = icmp eq i32 %20, 0
  br i1 %.not94, label %21, label %.thread116

21:                                               ; preds = %15
  %22 = trunc nuw i64 %18 to i32
  %23 = getelementptr inbounds nuw i8, ptr %1, i64 %18
  %24 = sub i64 %2, %18
  %25 = load i32, ptr %13, align 8
  %26 = add i32 %25, %22
  store i32 %26, ptr %13, align 8
  %27 = icmp eq i32 %26, 8192
  %28 = icmp ne i64 %24, 0
  %or.cond = and i1 %28, %27
  br i1 %or.cond, label %29, label %.thread

29:                                               ; preds = %21
  call void @llvm.lifetime.start.p0(i64 1, ptr nonnull %4) #4
  store i8 3, ptr %4, align 1
  store i32 0, ptr %13, align 8
  store i64 1, ptr %10, align 8
  %30 = call i32 @KeccakWidth1600_12rounds_SpongeAbsorb(ptr noundef nonnull %19, ptr noundef nonnull %4, i64 noundef 1) #4
  %.not95 = icmp eq i32 %30, 0
  br i1 %.not95, label %.thread.thread, label %.critedge

.thread.thread:                                   ; preds = %29
  %31 = getelementptr inbounds nuw i8, ptr %0, i64 420
  %32 = load i32, ptr %31, align 4
  %33 = add i32 %32, 7
  %34 = and i32 %33, -8
  store i32 %34, ptr %31, align 4
  call void @llvm.lifetime.end.p0(i64 1, ptr nonnull %4) #4
  br label %.lr.ph

.critedge:                                        ; preds = %29
  call void @llvm.lifetime.end.p0(i64 1, ptr nonnull %4) #4
  br label %.thread116

35:                                               ; preds = %9
  %.not89 = icmp eq i32 %14, 0
  br i1 %.not89, label %.thread, label %36

36:                                               ; preds = %35
  %37 = sub i32 8192, %14
  %38 = zext i32 %37 to i64
  %39 = tail call i64 @llvm.umin.i64(i64 %2, i64 %38)
  %40 = tail call i32 @KeccakWidth1600_12rounds_SpongeAbsorb(ptr noundef nonnull %0, ptr noundef %1, i64 noundef %39) #4
  %.not90 = icmp eq i32 %40, 0
  br i1 %.not90, label %41, label %.thread116

41:                                               ; preds = %36
  %42 = trunc nuw i64 %39 to i32
  %43 = getelementptr inbounds nuw i8, ptr %1, i64 %39
  %44 = sub i64 %2, %39
  %45 = load i32, ptr %13, align 8
  %46 = add i32 %45, %42
  store i32 %46, ptr %13, align 8
  %47 = icmp eq i32 %46, 8192
  br i1 %47, label %48, label %.thread

48:                                               ; preds = %41
  call void @llvm.lifetime.start.p0(i64 32, ptr nonnull %5) #4
  store i32 0, ptr %13, align 8
  %49 = load i64, ptr %10, align 8
  %50 = add i64 %49, 1
  store i64 %50, ptr %10, align 8
  %51 = tail call i32 @KeccakWidth1600_12rounds_SpongeAbsorbLastFewBits(ptr noundef nonnull %0, i8 noundef zeroext 11) #4
  %.not91 = icmp eq i32 %51, 0
  br i1 %.not91, label %52, label %.critedge103

52:                                               ; preds = %48
  %53 = call i32 @KeccakWidth1600_12rounds_SpongeSqueeze(ptr noundef nonnull %0, ptr noundef nonnull %5, i64 noundef 32) #4
  %.not92 = icmp eq i32 %53, 0
  br i1 %.not92, label %54, label %.critedge103

54:                                               ; preds = %52
  %55 = getelementptr inbounds nuw i8, ptr %0, i64 216
  %56 = call i32 @KeccakWidth1600_12rounds_SpongeAbsorb(ptr noundef nonnull %55, ptr noundef nonnull %5, i64 noundef 32) #4
  %.not93 = icmp eq i32 %56, 0
  call void @llvm.lifetime.end.p0(i64 32, ptr nonnull %5) #4
  br i1 %.not93, label %.thread, label %.thread116

.critedge103:                                     ; preds = %52, %48
  call void @llvm.lifetime.end.p0(i64 32, ptr nonnull %5) #4
  br label %.thread116

.thread:                                          ; preds = %21, %54, %41, %35
  %.181 = phi i64 [ %2, %35 ], [ %44, %41 ], [ %44, %54 ], [ %24, %21 ]
  %.170 = phi ptr [ %1, %35 ], [ %43, %41 ], [ %43, %54 ], [ %23, %21 ]
  %.not96127 = icmp eq i64 %.181, 0
  br i1 %.not96127, label %.thread116, label %.lr.ph

.lr.ph:                                           ; preds = %.thread.thread, %.thread
  %.170140 = phi ptr [ %23, %.thread.thread ], [ %.170, %.thread ]
  %.181139 = phi i64 [ %24, %.thread.thread ], [ %.181, %.thread ]
  %57 = getelementptr inbounds nuw i8, ptr %0, i64 448
  %58 = getelementptr inbounds nuw i8, ptr %0, i64 216
  br label %59

59:                                               ; preds = %.lr.ph, %78
  %.372129 = phi ptr [ %.170140, %.lr.ph ], [ %66, %78 ]
  %.383128 = phi i64 [ %.181139, %.lr.ph ], [ %67, %78 ]
  %60 = call i64 @llvm.umin.i64(i64 %.383128, i64 8192)
  %61 = trunc nuw nsw i64 %60 to i32
  %62 = call i32 @KeccakWidth1600_12rounds_SpongeInitialize(ptr noundef nonnull %0, i32 noundef 1344, i32 noundef 256) #4
  %.not97 = icmp eq i32 %62, 0
  br i1 %.not97, label %63, label %.thread116

63:                                               ; preds = %59
  %64 = call i32 @KeccakWidth1600_12rounds_SpongeAbsorb(ptr noundef nonnull %0, ptr noundef %.372129, i64 noundef %60) #4
  %.not98 = icmp eq i32 %64, 0
  br i1 %.not98, label %65, label %.thread116

65:                                               ; preds = %63
  %66 = getelementptr inbounds nuw i8, ptr %.372129, i64 %60
  %67 = sub i64 %.383128, %60
  %68 = icmp ugt i64 %.383128, 8191
  br i1 %68, label %69, label %77

69:                                               ; preds = %65
  call void @llvm.lifetime.start.p0(i64 32, ptr nonnull %6) #4
  %70 = load i64, ptr %10, align 8
  %71 = add i64 %70, 1
  store i64 %71, ptr %10, align 8
  %72 = call i32 @KeccakWidth1600_12rounds_SpongeAbsorbLastFewBits(ptr noundef nonnull %0, i8 noundef zeroext 11) #4
  %.not99 = icmp eq i32 %72, 0
  br i1 %.not99, label %73, label %.critedge108

73:                                               ; preds = %69
  %74 = call i32 @KeccakWidth1600_12rounds_SpongeSqueeze(ptr noundef nonnull %0, ptr noundef nonnull %6, i64 noundef 32) #4
  %.not100 = icmp eq i32 %74, 0
  br i1 %.not100, label %75, label %.critedge108

75:                                               ; preds = %73
  %76 = call i32 @KeccakWidth1600_12rounds_SpongeAbsorb(ptr noundef nonnull %58, ptr noundef nonnull %6, i64 noundef 32) #4
  %.not101 = icmp eq i32 %76, 0
  call void @llvm.lifetime.end.p0(i64 32, ptr nonnull %6) #4
  br i1 %.not101, label %78, label %.thread116

77:                                               ; preds = %65
  store i32 %61, ptr %57, align 8
  br label %78

.critedge108:                                     ; preds = %73, %69
  call void @llvm.lifetime.end.p0(i64 32, ptr nonnull %6) #4
  br label %.thread116

78:                                               ; preds = %77, %75
  %.not96 = icmp eq i64 %67, 0
  br i1 %.not96, label %.thread116, label %59

.thread116:                                       ; preds = %78, %75, %59, %63, %.thread, %.critedge108, %.critedge103, %36, %54, %15, %.critedge, %3
  %.0 = phi i32 [ 1, %3 ], [ 1, %.critedge ], [ 1, %15 ], [ 1, %54 ], [ 1, %36 ], [ 1, %.critedge103 ], [ 1, %.critedge108 ], [ 0, %.thread ], [ 0, %78 ], [ 1, %75 ], [ 1, %59 ], [ 1, %63 ]
  ret i32 %.0
}